target datalayout = "e-m:e-p270:32:32-p271:32:32-p272:64:64-i64:64-i128:128-f80:128-n8:16:32:64-S128"
target triple = "x86_64-pc-linux-gnu"

%struct._generic_N_Vector = type { ptr, ptr }
%struct._generic_N_Vector_Ops = type { ptr, ptr, ptr, ptr, ptr, ptr, ptr, ptr, ptr, ptr, ptr, ptr, ptr, ptr, ptr, ptr, ptr, ptr, ptr, ptr, ptr, ptr, ptr, ptr, ptr }

; Function Attrs: nounwind uwtable
define void @N_VDestroy(ptr noundef %0) #0 {
  %2 = alloca ptr, align 8
  store ptr %0, ptr %2, align 8, !tbaa !3
  %3 = load ptr, ptr %2, align 8, !tbaa !3
  %4 = icmp eq ptr %3, null
  br i1 %4, label %5, label %6

5:                                                ; preds = %1
  br label %13

6:                                                ; preds = %1
  %7 = load ptr, ptr %2, align 8, !tbaa !3
  %8 = getelementptr inbounds nuw %struct._generic_N_Vector, ptr %7, i32 0, i32 1
  %9 = load ptr, ptr %8, align 8, !tbaa !8
  %10 = getelementptr inbounds nuw %struct._generic_N_Vector_Ops, ptr %9, i32 0, i32 2
  %11 = load ptr, ptr %10, align 8, !tbaa !14
  %12 = load ptr, ptr %2, align 8, !tbaa !3
  call void %11(ptr noundef %12)
  br label %13

13:                                               ; preds = %6, %5
  ret void
}

; Function Attrs: nounwind uwtable
define void @N_VDestroyVectorArray(ptr noundef %0, i32 noundef %1) #0 {
  %3 = alloca ptr, align 8
  %4 = alloca i32, align 4
  %5 = alloca i32, align 4
  %6 = alloca i32, align 4
  store ptr %0, ptr %3, align 8, !tbaa !45
  store i32 %1, ptr %4, align 4, !tbaa !43
  call void @llvm.lifetime.start.p0(i64 4, ptr %5) #4
  %7 = load ptr, ptr %3, align 8, !tbaa !45
  %8 = icmp eq ptr %7, null
  br i1 %8, label %9, label %10

9:                                                ; preds = %2
  store i32 1, ptr %6, align 4
  br label %26

10:                                               ; preds = %2
  store i32 0, ptr %5, align 4, !tbaa !43
  br label %11

11:                                               ; preds = %21, %10
  %12 = load i32, ptr %5, align 4, !tbaa !43
  %13 = load i32, ptr %4, align 4, !tbaa !43
  %14 = icmp slt i32 %12, %13
  br i1 %14, label %15, label %24

15:                                               ; preds = %11
  %16 = load ptr, ptr %3, align 8, !tbaa !45
  %17 = load i32, ptr %5, align 4, !tbaa !43
  %18 = sext i32 %17 to i64
  %19 = getelementptr inbounds ptr, ptr %16, i64 %18
  %20 = load ptr, ptr %19, align 8, !tbaa !3
  call void @N_VDestroy(ptr noundef %20)
  br label %21

21:                                               ; preds = %15
  %22 = load i32, ptr %5, align 4, !tbaa !43
  %23 = add nsw i32 %22, 1
  store i32 %23, ptr %5, align 4, !tbaa !43
  br label %11, !llvm.loop !49

24:                                               ; preds = %11
  %25 = load ptr, ptr %3, align 8, !tbaa !45
  call void @free(ptr noundef %25) #4
  store ptr null, ptr %3, align 8, !tbaa !45
  store i32 1, ptr %6, align 4
  br label %26

26:                                               ; preds = %24, %9
  call void @llvm.lifetime.end.p0(i64 4, ptr %5) #4
  ret void
}