; Function Attrs: nounwind uwtable
define void @N_VDestroyVectorArray(ptr noundef captures(address_is_null) %0, i32 noundef %1) local_unnamed_addr #0 {
  %3 = icmp eq ptr %0, null
  br i1 %3, label %13, label %.preheader

.preheader:                                       ; preds = %2
  %4 = icmp sgt i32 %1, 0
  br i1 %4, label %.lr.ph.preheader, label %._crit_edge

.lr.ph.preheader:                                 ; preds = %.preheader
  %wide.trip.count = zext nneg i32 %1 to i64
  br label %.lr.ph

.lr.ph:                                           ; preds = %.lr.ph.preheader, %N_VDestroy.exit
  %indvars.iv = phi i64 [ 0, %.lr.ph.preheader ], [ %indvars.iv.next, %N_VDestroy.exit ]
  %5 = getelementptr inbounds nuw ptr, ptr %0, i64 %indvars.iv
  %6 = load ptr, ptr %5, align 8, !tbaa !35
  %7 = icmp eq ptr %6, null
  br i1 %7, label %N_VDestroy.exit, label %8

8:                                                ; preds = %.lr.ph
  %9 = getelementptr inbounds nuw i8, ptr %6, i64 8
  %10 = load ptr, ptr %9, align 8, !tbaa !3
  %11 = getelementptr inbounds nuw i8, ptr %10, i64 16
  %12 = load ptr, ptr %11, align 8, !tbaa !12
  tail call void %12(ptr noundef nonnull %6) #3
  br label %N_VDestroy.exit

N_VDestroy.exit:                                  ; preds = %.lr.ph, %8
  %indvars.iv.next = add nuw nsw i64 %indvars.iv, 1
  %exitcond.not = icmp eq i64 %indvars.iv.next, %wide.trip.count
  br i1 %exitcond.not, label %._crit_edge, label %.lr.ph, !llvm.loop !37

._crit_edge:                                      ; preds = %N_VDestroy.exit, %.preheader
  tail call void @free(ptr noundef nonnull %0) #3
  br label %13

13:                                               ; preds = %2, %._crit_edge
  ret void
}